
libdartprofiler.so:     file format elf64-x86-64

Sections:
Idx Name          Size      VMA               LMA               File off  Algn
  0 .note.gnu.property 00000020  00000000000002a8  00000000000002a8  000002a8  2**3
                  CONTENTS, ALLOC, LOAD, READONLY, DATA
  1 .note.gnu.build-id 00000024  00000000000002c8  00000000000002c8  000002c8  2**2
                  CONTENTS, ALLOC, LOAD, READONLY, DATA
  2 .gnu.hash     00000024  00000000000002f0  00000000000002f0  000002f0  2**3
                  CONTENTS, ALLOC, LOAD, READONLY, DATA
  3 .dynsym       00000090  0000000000000318  0000000000000318  00000318  2**3
                  CONTENTS, ALLOC, LOAD, READONLY, DATA
  4 .dynstr       0000005b  00000000000003a8  00000000000003a8  000003a8  2**0
                  CONTENTS, ALLOC, LOAD, READONLY, DATA
  5 .rela.dyn     000000a8  0000000000000408  0000000000000408  00000408  2**3
                  CONTENTS, ALLOC, LOAD, READONLY, DATA
  6 .init         0000001b  0000000000001000  0000000000001000  00001000  2**2
                  CONTENTS, ALLOC, LOAD, READONLY, CODE
  7 .plt          00000010  0000000000001020  0000000000001020  00001020  2**4
                  CONTENTS, ALLOC, LOAD, READONLY, CODE
  8 .plt.got      00000010  0000000000001030  0000000000001030  00001030  2**4
                  CONTENTS, ALLOC, LOAD, READONLY, CODE
  9 .text         000000ce  0000000000001040  0000000000001040  00001040  2**4
                  CONTENTS, ALLOC, LOAD, READONLY, CODE
 10 .fini         0000000d  0000000000001110  0000000000001110  00001110  2**2
                  CONTENTS, ALLOC, LOAD, READONLY, CODE
 11 .eh_frame_hdr 00000024  0000000000002000  0000000000002000  00002000  2**2
                  CONTENTS, ALLOC, LOAD, READONLY, DATA
 12 .eh_frame     00000070  0000000000002028  0000000000002028  00002028  2**3
                  CONTENTS, ALLOC, LOAD, READONLY, DATA
 13 .init_array   00000008  0000000000003e80  0000000000003e80  00002e80  2**3
                  CONTENTS, ALLOC, LOAD, DATA
 14 .fini_array   00000008  0000000000003e88  0000000000003e88  00002e88  2**3
                  CONTENTS, ALLOC, LOAD, DATA
 15 .dynamic      00000150  0000000000003e90  0000000000003e90  00002e90  2**3
                  CONTENTS, ALLOC, LOAD, DATA
 16 .got          00000020  0000000000003fe0  0000000000003fe0  00002fe0  2**3
                  CONTENTS, ALLOC, LOAD, DATA
 17 .got.plt      00000018  0000000000004000  0000000000004000  00003000  2**3
                  CONTENTS, ALLOC, LOAD, DATA
 18 .data         00000008  0000000000004018  0000000000004018  00003018  2**3
                  CONTENTS, ALLOC, LOAD, DATA
 19 .bss          00000008  0000000000004020  0000000000004020  00003020  2**0
                  ALLOC
 20 .comment      0000002b  0000000000000000  0000000000000000  00003020  2**0
                  CONTENTS, READONLY

Disassembly of section .init:

0000000000001000 <_init>:
    1000:	f3 0f 1e fa          	endbr64 
    1004:	48 83 ec 08          	sub    $0x8,%rsp
    1008:	48 8b 05 e9 2f 00 00 	mov    0x2fe9(%rip),%rax        # 3ff8 <__gmon_start__>
    100f:	48 85 c0             	test   %rax,%rax
    1012:	74 02                	je     1016 <_init+0x16>
    1014:	ff d0                	call   *%rax
    1016:	48 83 c4 08          	add    $0x8,%rsp
    101a:	c3                   	ret    

Disassembly of section .plt:

0000000000001020 <.plt>:
    1020:	ff 35 e2 2f 00 00    	push   0x2fe2(%rip)        # 4008 <_GLOBAL_OFFSET_TABLE_+0x8>
    1026:	f2 ff 25 e3 2f 00 00 	bnd jmp *0x2fe3(%rip)        # 4010 <_GLOBAL_OFFSET_TABLE_+0x10>
    102d:	0f 1f 00             	nopl   (%rax)

Disassembly of section .plt.got:

0000000000001030 <__cxa_finalize@plt>:
    1030:	f3 0f 1e fa          	endbr64 
    1034:	f2 ff 25 a5 2f 00 00 	bnd jmp *0x2fa5(%rip)        # 3fe0 <__cxa_finalize>
    103b:	0f 1f 44 00 00       	nopl   0x0(%rax,%rax,1)

Disassembly of section .text:

0000000000001040 <deregister_tm_clones>:
    1040:	48 8d 3d d9 2f 00 00 	lea    0x2fd9(%rip),%rdi        # 4020 <completed.0>
    1047:	48 8d 05 d2 2f 00 00 	lea    0x2fd2(%rip),%rax        # 4020 <completed.0>
    104e:	48 39 f8             	cmp    %rdi,%rax
    1051:	74 15                	je     1068 <deregister_tm_clones+0x28>
    1053:	48 8b 05 96 2f 00 00 	mov    0x2f96(%rip),%rax        # 3ff0 <_ITM_deregisterTMCloneTable>
    105a:	48 85 c0             	test   %rax,%rax
    105d:	74 09                	je     1068 <deregister_tm_clones+0x28>
    105f:	ff e0                	jmp    *%rax
    1061:	0f 1f 80 00 00 00 00 	nopl   0x0(%rax)
    1068:	c3                   	ret    
    1069:	0f 1f 80 00 00 00 00 	nopl   0x0(%rax)

0000000000001070 <register_tm_clones>:
    1070:	48 8d 3d a9 2f 00 00 	lea    0x2fa9(%rip),%rdi        # 4020 <completed.0>
    1077:	48 8d 35 a2 2f 00 00 	lea    0x2fa2(%rip),%rsi        # 4020 <completed.0>
    107e:	48 29 fe             	sub    %rdi,%rsi
    1081:	48 89 f0             	mov    %rsi,%rax
    1084:	48 c1 ee 3f          	shr    $0x3f,%rsi
    1088:	48 c1 f8 03          	sar    $0x3,%rax
    108c:	48 01 c6             	add    %rax,%rsi
    108f:	48 d1 fe             	sar    %rsi
    1092:	74 14                	je     10a8 <register_tm_clones+0x38>
    1094:	48 8b 05 4d 2f 00 00 	mov    0x2f4d(%rip),%rax        # 3fe8 <_ITM_registerTMCloneTable>
    109b:	48 85 c0             	test   %rax,%rax
    109e:	74 08                	je     10a8 <register_tm_clones+0x38>
    10a0:	ff e0                	jmp    *%rax
    10a2:	66 0f 1f 44 00 00    	nopw   0x0(%rax,%rax,1)
    10a8:	c3                   	ret    
    10a9:	0f 1f 80 00 00 00 00 	nopl   0x0(%rax)

00000000000010b0 <__do_global_dtors_aux>:
    10b0:	f3 0f 1e fa          	endbr64 
    10b4:	80 3d 65 2f 00 00 00 	cmpb   $0x0,0x2f65(%rip)        # 4020 <completed.0>
    10bb:	75 2b                	jne    10e8 <__do_global_dtors_aux+0x38>
    10bd:	55                   	push   %rbp
    10be:	48 83 3d 1a 2f 00 00 	cmpq   $0x0,0x2f1a(%rip)        # 3fe0 <__cxa_finalize>
    10c5:	00 
    10c6:	48 89 e5             	mov    %rsp,%rbp
    10c9:	74 0c                	je     10d7 <__do_global_dtors_aux+0x27>
    10cb:	48 8b 3d 46 2f 00 00 	mov    0x2f46(%rip),%rdi        # 4018 <__dso_handle>
    10d2:	e8 59 ff ff ff       	call   1030 <__cxa_finalize@plt>
    10d7:	e8 64 ff ff ff       	call   1040 <deregister_tm_clones>
    10dc:	c6 05 3d 2f 00 00 01 	movb   $0x1,0x2f3d(%rip)        # 4020 <completed.0>
    10e3:	5d                   	pop    %rbp
    10e4:	c3                   	ret    
    10e5:	0f 1f 00             	nopl   (%rax)
    10e8:	c3                   	ret    
    10e9:	0f 1f 80 00 00 00 00 	nopl   0x0(%rax)

00000000000010f0 <frame_dummy>:
    10f0:	f3 0f 1e fa          	endbr64 
    10f4:	e9 77 ff ff ff       	jmp    1070 <register_tm_clones>
    10f9:	0f 1f 80 00 00 00 00 	nopl   0x0(%rax)

0000000000001100 <rdtsc>:
    1100:	f3 0f 1e fa          	endbr64 
    1104:	0f 31                	rdtsc  
    1106:	48 c1 e2 20          	shl    $0x20,%rdx
    110a:	48 09 d0             	or     %rdx,%rax
    110d:	c3                   	ret    

Disassembly of section .fini:

0000000000001110 <_fini>:
    1110:	f3 0f 1e fa          	endbr64 
    1114:	48 83 ec 08          	sub    $0x8,%rsp
    1118:	48 83 c4 08          	add    $0x8,%rsp
    111c:	c3                   	ret    
